; Function Attrs: mustprogress uwtable
define dso_local i64 @_ZN5cmsys11SystemTools10RemoveFileERKNSt7__cxx1112basic_stringIcSt11char_traitsIcESaIcEEE(ptr noundef nonnull readonly align 8 captures(none) dereferenceable(32) %0) local_unnamed_addr #6 align 2 {
  %2 = load ptr, ptr %0, align 8, !tbaa !21
  %3 = tail call i32 @unlink(ptr noundef %2) #39
  %.not = icmp eq i32 %3, 0
  br i1 %.not, label %9, label %4

4:                                                ; preds = %1
  %5 = tail call ptr @__errno_location() #42
  %6 = load i32, ptr %5, align 4, !tbaa !42
  %.not1 = icmp eq i32 %6, 2
  br i1 %.not1, label %9, label %7

7:                                                ; preds = %4
  %8 = tail call i64 @_ZN5cmsys6Status11POSIX_errnoEv()
  br label %9

9:                                                ; preds = %1, %4, %7
  %.sroa.0.0 = phi i64 [ %8, %7 ], [ 0, %4 ], [ 0, %1 ]
  ret i64 %.sroa.0.0
}